; Function Attrs: mustprogress uwtable
define void @_ZNK6icu_7514SearchIterator14getMatchedTextERNS_13UnicodeStringE(ptr nocapture noundef nonnull readonly align 8 dereferenceable(88) %this, ptr noundef nonnull align 8 dereferenceable(64) %result) local_unnamed_addr #0 align 2 {
entry:
  %m_search_ = getelementptr inbounds i8, ptr %this, i64 8
  %0 = load ptr, ptr %m_search_, align 8
  %matchedIndex = getelementptr inbounds i8, ptr %0, i64 32
  %1 = load i32, ptr %matchedIndex, align 8
  %matchedLength = getelementptr inbounds i8, ptr %0, i64 36
  %2 = load i32, ptr %matchedLength, align 4
  %cmp = icmp ne i32 %1, -1
  %cmp3 = icmp ne i32 %2, 0
  %or.cond = select i1 %cmp, i1 %cmp3, i1 false
  br i1 %or.cond, label %if.then, label %if.else

if.then:                                          ; preds = %entry
  %3 = load ptr, ptr %0, align 8
  %idx.ext = sext i32 %1 to i64
  %add.ptr = getelementptr inbounds i16, ptr %3, i64 %idx.ext
  tail call void @_ZN6icu_7513UnicodeString7unBogusEv(ptr noundef nonnull align 8 dereferenceable(64) %result)
  %fUnion.i.i.i = getelementptr inbounds i8, ptr %result, i64 8
  %4 = load i16, ptr %fUnion.i.i.i, align 8
  %cmp.i.i.i = icmp slt i16 %4, 0
  %5 = ashr i16 %4, 5
  %shr.i.i.i = sext i16 %5 to i32
  %fLength.i.i = getelementptr inbounds i8, ptr %result, i64 12
  %6 = load i32, ptr %fLength.i.i, align 4
  %cond.i.i = select i1 %cmp.i.i.i, i32 %6, i32 %shr.i.i.i
  %call2.i = tail call noundef nonnull align 8 dereferenceable(64) ptr @_ZN6icu_7513UnicodeString9doReplaceEiiPKDsii(ptr noundef nonnull align 8 dereferenceable(64) %result, i32 noundef 0, i32 noundef %cond.i.i, ptr noundef %add.ptr, i32 noundef 0, i32 noundef %2)
  br label %if.end

if.else:                                          ; preds = %entry
  %fUnion.i.i = getelementptr inbounds i8, ptr %result, i64 8
  %7 = load i16, ptr %fUnion.i.i, align 8
  %conv2.i3.i = and i16 %7, 1
  %tobool.not.i = icmp eq i16 %conv2.i3.i, 0
  %8 = and i16 %7, 30
  %storemerge.i = select i1 %tobool.not.i, i16 %8, i16 2
  store i16 %storemerge.i, ptr %fUnion.i.i, align 8
  br label %if.end

if.end:                                           ; preds = %if.else, %if.then
  ret void
}